BL51 BANKED LINKER/LOCATER V6.22                                                        03/31/2018  12:10:55  PAGE 1


BL51 BANKED LINKER/LOCATER V6.22, INVOKED BY:
F:\KEIL4\C51\BIN\BL51.EXE ..\output\ds18b20.obj, ..\output\ds1302.obj, ..\output\keyboard.obj, ..\output\led.obj, ..\out
>> put\main.obj, ..\output\time.obj, ..\output\eeprom.obj, ..\output\i2c.obj, ..\output\pcf8591.obj TO ..\output\test PR
>> INT (..\output\test.m51) RAMSIZE (256)


MEMORY MODEL: COMPACT


INPUT MODULES INCLUDED:
  ..\output\ds18b20.obj (DS18B20)
  ..\output\ds1302.obj (DS1302)
  ..\output\keyboard.obj (KEYBOARD)
  ..\output\led.obj (LED)
  ..\output\main.obj (MAIN)
  ..\output\time.obj (TIME)
  ..\output\eeprom.obj (EEPROM)
  ..\output\i2c.obj (I2C)
  ..\output\pcf8591.obj (PCF8591)
  F:\KEIL4\C51\LIB\C51C.LIB (?C_STARTUP)
  F:\KEIL4\C51\LIB\C51C.LIB (?C?COPY)
  F:\KEIL4\C51\LIB\C51C.LIB (?C?CLDPTR)
  F:\KEIL4\C51\LIB\C51C.LIB (?C?CLDOPTR)
  F:\KEIL4\C51\LIB\C51C.LIB (?C?CSTPTR)
  F:\KEIL4\C51\LIB\C51C.LIB (?C?CSTOPTR)
  F:\KEIL4\C51\LIB\C51C.LIB (?C?UIDIV)
  F:\KEIL4\C51\LIB\C51C.LIB (?C?SIDIV)
  F:\KEIL4\C51\LIB\C51C.LIB (?C?ILDPTR)
  F:\KEIL4\C51\LIB\C51C.LIB (?C?ISTPTR)
  F:\KEIL4\C51\LIB\C51C.LIB (?C?LMUL)
  F:\KEIL4\C51\LIB\C51C.LIB (?C?ULDIV)
  F:\KEIL4\C51\LIB\C51C.LIB (?C?ULSHR)
  F:\KEIL4\C51\LIB\C51C.LIB (?C?LSTPDATA)
  F:\KEIL4\C51\LIB\C51C.LIB (?C?LSTKPDATA)
  F:\KEIL4\C51\LIB\C51C.LIB (?C_INIT)


LINK MAP OF MODULE:  ..\output\test (DS18B20)


            TYPE    BASE      LENGTH    RELOCATION   SEGMENT NAME
            -----------------------------------------------------

            * * * * * * *   D A T A   M E M O R Y   * * * * * * *
            REG     0000H     0008H     ABSOLUTE     "REG BANK 0"
                    0008H     0018H                  *** GAP ***
            BIT     0020H.0   0000H.1   UNIT         ?BI?GET18B20ACK?DS18B20
            BIT     0020H.1   0000H.1   UNIT         ?BI?START18B20?DS18B20
            BIT     0020H.2   0000H.1   UNIT         ?BI?_GET18B20TEMP?DS18B20
            BIT     0020H.3   0000H.1   UNIT         ?BI?MAIN
            BIT     0020H.4   0000H.1   UNIT         ?BI?REFRESHTIME?TIME
            BIT     0020H.5   0000H.1   UNIT         _BIT_GROUP_
                    0020H.6   0000H.2                *** GAP ***
            IDATA   0021H     0001H     UNIT         ?STACK

            * * * * * * *  X D A T A   M E M O R Y  * * * * * * *
            XDATA   0000H     0003H     INPAGE       ?PD?_DS1302BURSTREAD?DS1302
            XDATA   0003H     000BH     INPAGE       ?PD?_GETREALTIME?DS1302
BL51 BANKED LINKER/LOCATER V6.22                                                      03/31/2018  12:10:55  PAGE 2


            XDATA   000EH     0031H     INPAGE       ?PD?KEYBOARD
            XDATA   003FH     0013H     INPAGE       ?PD?LED
            XDATA   0052H     0003H     INPAGE       ?PD?MAIN
            XDATA   0055H     0004H     INPAGE       ?PD?REFRESHTEMP?TIME
            XDATA   0059H     0009H     INPAGE       ?PD?TIME
            XDATA   0062H     0005H     INPAGE       ?PD?_E2READ?EEPROM
            XDATA   0067H     0005H     INPAGE       ?PD?_E2WRITE?EEPROM
            XDATA   006CH     0002H     INPAGE       ?PD?_GETADCVAL?PCF8591
            XDATA   006EH     0014H     INPAGE       _PDATA_GROUP_

            * * * * * * *   C O D E   M E M O R Y   * * * * * * *
            CODE    0000H     0003H     ABSOLUTE     
            CODE    0003H     0008H     UNIT         ?CO?DS1302
            CODE    000BH     0003H     ABSOLUTE     
            CODE    000EH     039AH     UNIT         ?C?LIB_CODE
            CODE    03A8H     00E2H     UNIT         ?PR?KEYSCAN?KEYBOARD
            CODE    048AH     008CH     UNIT         ?C_C51STARTUP
            CODE    0516H     0087H     UNIT         ?PR?_CONFIGTIMER0?MAIN
            CODE    059DH     0082H     UNIT         ?PR?KEYDRIVER?KEYBOARD
            CODE    061FH     006FH     UNIT         ?PR?REFRESHTEMP?TIME
            CODE    068EH     0069H     UNIT         ?PR?_GETREALTIME?DS1302
            CODE    06F7H     0066H     UNIT         ?PR?_E2READ?EEPROM
            CODE    075DH     005FH     UNIT         ?PR?_E2WRITE?EEPROM
            CODE    07BCH     005DH     UNIT         ?PR?REFRESHTIME?TIME
            CODE    0819H     005BH     UNIT         ?C_INITSEG
            CODE    0874H     0056H     UNIT         ?PR?INTERRUPTTIMER0?MAIN
            CODE    08CAH     0048H     UNIT         ?PR?_SETREALTIME?DS1302
            CODE    0912H     0048H     UNIT         ?PR?_GETADCVAL?PCF8591
            CODE    095AH     0047H     UNIT         ?PR?_SHOWNUMBER?LED
            CODE    09A1H     0046H     UNIT         ?PR?LEDSCAN?LED
            CODE    09E7H     0033H     UNIT         ?PR?_DS1302BURSTWRITE?DS1302
            CODE    0A1AH     0033H     UNIT         ?PR?_SETDACOUT?PCF8591
            CODE    0A4DH     0031H     UNIT         ?PR?_DS1302BURSTREAD?DS1302
            CODE    0A7EH     002EH     UNIT         ?PR?_GET18B20TEMP?DS18B20
            CODE    0AACH     002BH     UNIT         ?PR?_I2CWRITE?I2C
            CODE    0AD7H     0029H     UNIT         ?PR?I2CREADACK?I2C
            CODE    0B00H     0029H     UNIT         ?PR?I2CREADNAK?I2C
            CODE    0B29H     0028H     UNIT         ?PR?DS18B20READ?DS18B20
            CODE    0B51H     0025H     UNIT         ?PR?_DS18B20WRITE?DS18B20
            CODE    0B76H     0022H     UNIT         ?PR?MAIN?MAIN
            CODE    0B98H     0020H     UNIT         ?PR?INITDS1302?DS1302
            CODE    0BB8H     001DH     UNIT         ?PR?GET18B20ACK?DS18B20
            CODE    0BD5H     001BH     UNIT         ?PR?_DS1302BYTEWRITE?DS1302
            CODE    0BF0H     0017H     UNIT         ?PR?DS1302BYTEREAD?DS1302
            CODE    0C07H     0016H     UNIT         ?PR?START18B20?DS18B20
            CODE    0C1DH     0011H     UNIT         ?PR?I2CSTART?I2C
            CODE    0C2EH     0011H     UNIT         ?PR?I2CSTOP?I2C
            CODE    0C3FH     0010H     UNIT         ?CO?KEYBOARD
            CODE    0C4FH     0010H     UNIT         ?PR?DELAY5US?I2C
            CODE    0C5FH     000FH     UNIT         ?PR?CLOSEFUCKER?MAIN
            CODE    0C6EH     000EH     UNIT         ?PR?_KEYACTION?TIME
            CODE    0C7CH     000BH     UNIT         ?PR?_DELAY?DS18B20



OVERLAY MAP OF MODULE:   ..\output\test (DS18B20)

BL51 BANKED LINKER/LOCATER V6.22                                                      03/31/2018  12:10:55  PAGE 3



SEGMENT                                 BIT_GROUP          PDATA_GROUP
  +--> CALLED SEGMENT                START    LENGTH     START    LENGTH
------------------------------------------------------------------------
?PR?INTERRUPTTIMER0?MAIN             -----    -----      -----    -----
  +--> ?PR?KEYSCAN?KEYBOARD
  +--> ?PR?LEDSCAN?LED

*** NEW ROOT ***************************************************

?C_C51STARTUP                        -----    -----      -----    -----
  +--> ?PR?MAIN?MAIN
  +--> ?C_INITSEG

?PR?MAIN?MAIN                        -----    -----      006EH    0001H
  +--> ?PR?CLOSEFUCKER?MAIN
  +--> ?PR?_CONFIGTIMER0?MAIN
  +--> ?PR?INITDS1302?DS1302
  +--> ?PR?_SETDACOUT?PCF8591
  +--> ?PR?KEYDRIVER?KEYBOARD

?PR?_CONFIGTIMER0?MAIN               -----    -----      006FH    0004H

?PR?INITDS1302?DS1302                -----    -----      006FH    0008H
  +--> ?CO?DS1302
  +--> ?PR?_SETREALTIME?DS1302

?PR?_SETREALTIME?DS1302              -----    -----      0077H    0008H
  +--> ?PR?_DS1302BURSTWRITE?DS1302

?PR?_DS1302BURSTWRITE?DS1302         -----    -----      007FH    0003H
  +--> ?PR?_DS1302BYTEWRITE?DS1302

?PR?_SETDACOUT?PCF8591               -----    -----      006FH    0001H
  +--> ?PR?I2CSTART?I2C
  +--> ?PR?_I2CWRITE?I2C
  +--> ?PR?I2CSTOP?I2C

?PR?I2CSTART?I2C                     -----    -----      -----    -----
  +--> ?PR?DELAY5US?I2C

?PR?_I2CWRITE?I2C                    0020H.5  0000H.1    -----    -----
  +--> ?PR?DELAY5US?I2C

?PR?I2CSTOP?I2C                      -----    -----      -----    -----
  +--> ?PR?DELAY5US?I2C

?PR?KEYDRIVER?KEYBOARD               -----    -----      006FH    0002H
  +--> ?CO?KEYBOARD
  +--> ?PR?_KEYACTION?TIME

?PR?_KEYACTION?TIME                  -----    -----      -----    -----
  +--> ?PR?_SHOWNUMBER?LED

?PR?_SHOWNUMBER?LED                  -----    -----      0071H    0008H


BL51 BANKED LINKER/LOCATER V6.22                                                      03/31/2018  12:10:55  PAGE 4



SYMBOL TABLE OF MODULE:  ..\output\test (DS18B20)

  VALUE           TYPE          NAME
  ----------------------------------

  -------         MODULE        DS18B20
  C:0000H         SYMBOL        _ICE_DUMMY_
  D:0080H         PUBLIC        P0
  D:0090H         PUBLIC        P1
  D:00A0H         PUBLIC        P2
  D:00B0H         PUBLIC        P3
  D:00C0H         PUBLIC        P4
  D:00C8H         PUBLIC        P5
  D:00E8H         PUBLIC        P6
  D:00F8H         PUBLIC        P7
  D:00A8H         PUBLIC        IE
  D:00B8H         PUBLIC        IP
  B:0090H.4       PUBLIC        DS18B20_IO
  C:0C07H         PUBLIC        Start18B20
  D:00D8H         PUBLIC        CCON
  C:0B29H         PUBLIC        DS18B20Read
  D:0098H         PUBLIC        SCON
  C:0B51H         PUBLIC        _DS18B20Write
  D:0088H         PUBLIC        TCON
  C:0BB8H         PUBLIC        Get18B20Ack
  C:0A7EH         PUBLIC        _Get18B20Temp
  C:0C7CH         PUBLIC        _Delay
  D:00D0H         PUBLIC        PSW
  -------         PROC          _DELAY
  D:0007H         SYMBOL        us
  C:0C7CH         LINE#         3
  C:0C7CH         LINE#         4
  C:0C7CH         LINE#         5
  C:0C7CH         LINE#         6
  C:0C7DH         LINE#         7
  C:0C7EH         LINE#         8
  C:0C7FH         LINE#         9
  C:0C80H         LINE#         10
  C:0C81H         LINE#         11
  C:0C82H         LINE#         12
  C:0C83H         LINE#         13
  C:0C84H         LINE#         14
  C:0C86H         LINE#         15
  -------         ENDPROC       _DELAY
  -------         PROC          GET18B20ACK
  -------         DO            
  B:0020H.0       SYMBOL        ack
  -------         ENDDO         
  C:0BB8H         LINE#         17
  C:0BB8H         LINE#         18
  C:0BB8H         LINE#         21
  C:0BBAH         LINE#         22
  C:0BBFH         LINE#         23
  C:0BC4H         LINE#         24
  C:0BC6H         LINE#         25
  C:0BCBH         LINE#         26
BL51 BANKED LINKER/LOCATER V6.22                                                      03/31/2018  12:10:55  PAGE 5


  C:0BCFH         LINE#         27
  C:0BD2H         LINE#         29
  C:0BD4H         LINE#         30
  -------         ENDPROC       GET18B20ACK
  -------         PROC          _DS18B20WRITE
  D:0006H         SYMBOL        dat
  -------         DO            
  D:0005H         SYMBOL        mask
  -------         ENDDO         
  C:0B51H         LINE#         32
  C:0B53H         LINE#         33
  C:0B53H         LINE#         36
  C:0B58H         LINE#         37
  C:0B58H         LINE#         38
  C:0B5AH         LINE#         39
  C:0B5FH         LINE#         40
  C:0B62H         LINE#         41
  C:0B62H         LINE#         42
  C:0B64H         LINE#         43
  C:0B66H         LINE#         45
  C:0B66H         LINE#         46
  C:0B68H         LINE#         47
  C:0B68H         LINE#         48
  C:0B6DH         LINE#         49
  C:0B6FH         LINE#         50
  C:0B75H         LINE#         51
  -------         ENDPROC       _DS18B20WRITE
  -------         PROC          DS18B20READ
  -------         DO            
  D:0005H         SYMBOL        mask
  D:0006H         SYMBOL        dat
  -------         ENDDO         
  C:0B29H         LINE#         53
  C:0B29H         LINE#         54
  C:0B29H         LINE#         55
  C:0B2BH         LINE#         57
  C:0B30H         LINE#         58
  C:0B30H         LINE#         59
  C:0B32H         LINE#         60
  C:0B37H         LINE#         61
  C:0B39H         LINE#         62
  C:0B3EH         LINE#         63
  C:0B41H         LINE#         64
  C:0B41H         LINE#         65
  C:0B43H         LINE#         66
  C:0B43H         LINE#         67
  C:0B48H         LINE#         68
  C:0B4EH         LINE#         70
  C:0B50H         LINE#         71
  -------         ENDPROC       DS18B20READ
  -------         PROC          START18B20
  -------         DO            
  B:0020H.1       SYMBOL        ack
  -------         ENDDO         
  C:0C07H         LINE#         73
  C:0C07H         LINE#         74
  C:0C07H         LINE#         77
BL51 BANKED LINKER/LOCATER V6.22                                                      03/31/2018  12:10:55  PAGE 6


  C:0C0CH         LINE#         78
  C:0C0FH         LINE#         79
  C:0C0FH         LINE#         80
  C:0C14H         LINE#         81
  C:0C19H         LINE#         82
  C:0C19H         LINE#         84
  C:0C1CH         LINE#         85
  -------         ENDPROC       START18B20
  -------         PROC          _GET18B20TEMP
  D:0001H         SYMBOL        temp
  -------         DO            
  B:0020H.2       SYMBOL        ack
  D:0004H         SYMBOL        LSB
  D:0007H         SYMBOL        MSB
  -------         ENDDO         
  C:0A7EH         LINE#         87
  C:0A7EH         LINE#         88
  C:0A7EH         LINE#         92
  C:0A83H         LINE#         93
  C:0A86H         LINE#         94
  C:0A86H         LINE#         95
  C:0A8BH         LINE#         96
  C:0A90H         LINE#         97
  C:0A95H         LINE#         98
  C:0A98H         LINE#         99
  C:0AA8H         LINE#         100
  C:0AA8H         LINE#         102
  C:0AABH         LINE#         103
  -------         ENDPROC       _GET18B20TEMP
  -------         ENDMOD        DS18B20

  -------         MODULE        DS1302
  C:0000H         SYMBOL        _ICE_DUMMY_
  D:0080H         PUBLIC        P0
  D:0090H         PUBLIC        P1
  C:09E7H         PUBLIC        _DS1302BurstWrite
  D:00A0H         PUBLIC        P2
  D:00B0H         PUBLIC        P3
  D:00C0H         PUBLIC        P4
  C:0BD5H         PUBLIC        _DS1302ByteWrite
  D:00C8H         PUBLIC        P5
  D:00E8H         PUBLIC        P6
  D:00F8H         PUBLIC        P7
  D:00A8H         PUBLIC        IE
  D:00B8H         PUBLIC        IP
  D:00D8H         PUBLIC        CCON
  D:0098H         PUBLIC        SCON
  D:0088H         PUBLIC        TCON
  C:068EH         PUBLIC        _GetRealTime
  C:0003H         SYMBOL        _?ix1000
  C:08CAH         PUBLIC        _SetRealTime
  B:0090H.3       PUBLIC        DS1302_CE
  B:0090H.7       PUBLIC        DS1302_CK
  B:00A0H.3       PUBLIC        DS1302_IO
  C:0A4DH         PUBLIC        _DS1302BurstRead
  C:0BF0H         PUBLIC        DS1302ByteRead
  C:0B98H         PUBLIC        InitDS1302
BL51 BANKED LINKER/LOCATER V6.22                                                      03/31/2018  12:10:55  PAGE 7


  D:00D0H         PUBLIC        PSW
  -------         PROC          _DS1302BYTEWRITE
  D:0007H         SYMBOL        dat
  -------         DO            
  D:0006H         SYMBOL        mask
  -------         ENDDO         
  C:0BD5H         LINE#         4
  C:0BD5H         LINE#         5
  C:0BD5H         LINE#         8
  C:0BDAH         LINE#         9
  C:0BDAH         LINE#         10
  C:0BDDH         LINE#         11
  C:0BDDH         LINE#         12
  C:0BDFH         LINE#         13
  C:0BE1H         LINE#         15
  C:0BE1H         LINE#         16
  C:0BE3H         LINE#         17
  C:0BE3H         LINE#         18
  C:0BE5H         LINE#         19
  C:0BE7H         LINE#         20
  C:0BEDH         LINE#         21
  C:0BEFH         LINE#         22
  -------         ENDPROC       _DS1302BYTEWRITE
  -------         PROC          DS1302BYTEREAD
  -------         DO            
  D:0006H         SYMBOL        mask
  D:0007H         SYMBOL        dat
  -------         ENDDO         
  C:0BF0H         LINE#         24
  C:0BF0H         LINE#         25
  C:0BF0H         LINE#         26
  C:0BF2H         LINE#         28
  C:0BF7H         LINE#         29
  C:0BF7H         LINE#         30
  C:0BFAH         LINE#         31
  C:0BFAH         LINE#         32
  C:0BFCH         LINE#         33
  C:0BFCH         LINE#         34
  C:0BFEH         LINE#         35
  C:0C00H         LINE#         36
  C:0C06H         LINE#         38
  C:0C06H         LINE#         39
  -------         ENDPROC       DS1302BYTEREAD
  -------         PROC          _DS1302BURSTWRITE
  X:007FH         SYMBOL        dat
  -------         DO            
  D:0005H         SYMBOL        i
  -------         ENDDO         
  C:09E7H         LINE#         41
  C:09F1H         LINE#         42
  C:09F1H         LINE#         45
  C:09F3H         LINE#         46
  C:09F8H         LINE#         47
  C:09FAH         LINE#         48
  C:09FAH         LINE#         49
  C:0A12H         LINE#         50
  C:0A17H         LINE#         51
BL51 BANKED LINKER/LOCATER V6.22                                                      03/31/2018  12:10:55  PAGE 8


  C:0A19H         LINE#         52
  -------         ENDPROC       _DS1302BURSTWRITE
  -------         PROC          _DS1302BURSTREAD
  X:0000H         SYMBOL        dat
  -------         DO            
  D:0005H         SYMBOL        i
  -------         ENDDO         
  C:0A4DH         LINE#         54
  C:0A57H         LINE#         55
  C:0A57H         LINE#         58
  C:0A59H         LINE#         59
  C:0A5EH         LINE#         60
  C:0A60H         LINE#         61
  C:0A60H         LINE#         62
  C:0A76H         LINE#         63
  C:0A7BH         LINE#         64
  C:0A7DH         LINE#         65
  -------         ENDPROC       _DS1302BURSTREAD
  -------         PROC          _SETREALTIME
  D:0001H         SYMBOL        time
  -------         DO            
  X:0077H         SYMBOL        buf
  -------         ENDDO         
  C:08CAH         LINE#         67
  C:08CAH         LINE#         68
  C:08CAH         LINE#         71
  C:08CEH         LINE#         72
  C:08D3H         LINE#         73
  C:08DCH         LINE#         74
  C:08E5H         LINE#         75
  C:08EEH         LINE#         76
  C:08F7H         LINE#         77
  C:0900H         LINE#         78
  C:0909H         LINE#         79
  -------         ENDPROC       _SETREALTIME
  -------         PROC          _GETREALTIME
  X:0003H         SYMBOL        time
  -------         DO            
  X:0006H         SYMBOL        buf
  -------         ENDDO         
  C:068EH         LINE#         82
  C:0698H         LINE#         83
  C:0698H         LINE#         86
  C:06A1H         LINE#         87
  C:06B5H         LINE#         88
  C:06CAH         LINE#         89
  C:06D3H         LINE#         90
  C:06DCH         LINE#         91
  C:06E5H         LINE#         92
  C:06EEH         LINE#         93
  -------         ENDPROC       _GETREALTIME
  -------         PROC          INITDS1302
  -------         DO            
  X:006FH         SYMBOL        InitTime
  -------         ENDDO         
  C:0B98H         LINE#         96
  C:0B98H         LINE#         97
BL51 BANKED LINKER/LOCATER V6.22                                                      03/31/2018  12:10:55  PAGE 9


  C:0B98H         LINE#         98
  C:0BABH         LINE#         102
  C:0BADH         LINE#         103
  C:0BAFH         LINE#         104
  -------         ENDPROC       INITDS1302
  -------         ENDMOD        DS1302

  -------         MODULE        KEYBOARD
  C:0000H         SYMBOL        _ICE_DUMMY_
  D:0080H         PUBLIC        P0
  D:0090H         PUBLIC        P1
  D:00A0H         PUBLIC        P2
  D:00B0H         PUBLIC        P3
  D:00C0H         PUBLIC        P4
  D:00C8H         PUBLIC        P5
  D:00E8H         PUBLIC        P6
  D:00F8H         PUBLIC        P7
  D:00A8H         PUBLIC        IE
  D:00B8H         PUBLIC        IP
  C:059DH         PUBLIC        KeyDriver
  D:00D8H         PUBLIC        CCON
  C:03A8H         PUBLIC        KeyScan
  D:0098H         PUBLIC        SCON
  D:0088H         PUBLIC        TCON
  C:0C3FH         PUBLIC        KeyCodeMap
  X:002FH         PUBLIC        KeySta
  B:00B0H.0       PUBLIC        KEY_OUT_1
  B:00B0H.1       PUBLIC        KEY_OUT_2
  B:00B0H.2       PUBLIC        KEY_OUT_3
  B:00B0H.3       PUBLIC        KEY_OUT_4
  B:00C0H.4       PUBLIC        KEY_IN_1
  B:00C0H.2       PUBLIC        KEY_IN_2
  B:00B0H.5       PUBLIC        KEY_IN_3
  B:00B0H.4       PUBLIC        KEY_IN_4
  D:00D0H         PUBLIC        PSW
  -------         PROC          KEYDRIVER
  -------         DO            
  X:006FH         SYMBOL        i
  X:0070H         SYMBOL        j
  X:000EH         SYMBOL        backup
  -------         ENDDO         
  C:059DH         LINE#         16
  C:059DH         LINE#         17
  C:059DH         LINE#         23
  C:05A1H         LINE#         24
  C:05A1H         LINE#         25
  C:05ADH         LINE#         26
  C:05ADH         LINE#         27
  C:05CAH         LINE#         28
  C:05CAH         LINE#         29
  C:05CDH         LINE#         30
  C:05CDH         LINE#         31
  C:05F0H         LINE#         32
  C:05F0H         LINE#         33
  C:05F0H         LINE#         34
  C:060CH         LINE#         35
  C:0613H         LINE#         36
BL51 BANKED LINKER/LOCATER V6.22                                                      03/31/2018  12:10:55  PAGE 10


  C:061EH         LINE#         37
  -------         ENDPROC       KEYDRIVER
  -------         PROC          KEYSCAN
  -------         DO            
  D:0007H         SYMBOL        i
  X:001EH         SYMBOL        keyout
  X:001FH         SYMBOL        keybuff
  -------         ENDDO         
  C:03A8H         LINE#         39
  C:03A8H         LINE#         40
  C:03A8H         LINE#         48
  C:03B8H         LINE#         49
  C:03B8H         LINE#         50
  C:03BEH         LINE#         51
  C:03C4H         LINE#         52
  C:03CAH         LINE#         53
  C:03CEH         LINE#         54
  C:03CEH         LINE#         55
  C:03CEH         LINE#         57
  C:03EDH         LINE#         58
  C:040CH         LINE#         59
  C:042BH         LINE#         60
  C:044AH         LINE#         62
  C:044CH         LINE#         63
  C:044CH         LINE#         64
  C:045FH         LINE#         65
  C:045FH         LINE#         66
  C:046BH         LINE#         67
  C:046DH         LINE#         68
  C:0470H         LINE#         69
  C:0470H         LINE#         70
  C:047BH         LINE#         71
  C:047BH         LINE#         73
  C:047BH         LINE#         74
  C:0480H         LINE#         76
  C:0485H         LINE#         77
  C:0489H         LINE#         78
  -------         ENDPROC       KEYSCAN
  -------         ENDMOD        KEYBOARD

  -------         MODULE        LED
  C:0000H         SYMBOL        _ICE_DUMMY_
  D:0080H         PUBLIC        P0
  D:0090H         PUBLIC        P1
  D:00A0H         PUBLIC        P2
  D:00B0H         PUBLIC        P3
  D:00C0H         PUBLIC        P4
  D:00C8H         PUBLIC        P5
  D:00E8H         PUBLIC        P6
  D:00F8H         PUBLIC        P7
  D:00A8H         PUBLIC        IE
  C:095AH         PUBLIC        _ShowNumber
  X:0040H         PUBLIC        LedChar
  D:00B8H         PUBLIC        IP
  X:004AH         PUBLIC        LedBuff
  C:09A1H         PUBLIC        LedScan
  D:00D8H         PUBLIC        CCON
BL51 BANKED LINKER/LOCATER V6.22                                                      03/31/2018  12:10:55  PAGE 11


  D:0098H         PUBLIC        SCON
  D:0088H         PUBLIC        TCON
  D:00D0H         PUBLIC        PSW
  -------         PROC          LEDSCAN
  -------         DO            
  X:003FH         SYMBOL        index
  -------         ENDDO         
  C:09A1H         LINE#         10
  C:09A1H         LINE#         11
  C:09A1H         LINE#         14
  C:09A9H         LINE#         15
  C:09ACH         LINE#         16
  C:09AFH         LINE#         18
  C:09B7H         LINE#         19
  C:09C8H         LINE#         20
  C:09CBH         LINE#         22
  C:09D3H         LINE#         23
  C:09DAH         LINE#         24
  C:09DDH         LINE#         26
  C:09E2H         LINE#         27
  C:09E6H         LINE#         28
  -------         ENDPROC       LEDSCAN
  -------         PROC          _SHOWNUMBER
  D:0007H         SYMBOL        num
  -------         DO            
  X:0071H         SYMBOL        buf
  D:0006H         SYMBOL        i
  -------         ENDDO         
  C:095AH         LINE#         30
  C:095AH         LINE#         31
  C:095AH         LINE#         35
  C:095CH         LINE#         36
  C:095CH         LINE#         37
  C:0968H         LINE#         38
  C:096EH         LINE#         39
  C:0973H         LINE#         40
  C:0975H         LINE#         41
  C:0975H         LINE#         42
  C:097CH         LINE#         43
  C:097CH         LINE#         44
  C:0983H         LINE#         45
  C:0983H         LINE#         47
  C:0983H         LINE#         48
  C:0983H         LINE#         49
  C:0983H         LINE#         50
  C:0985H         LINE#         51
  C:098DH         LINE#         52
  C:098DH         LINE#         53
  C:099DH         LINE#         54
  C:09A0H         LINE#         55
  -------         ENDPROC       _SHOWNUMBER
  -------         ENDMOD        LED

  -------         MODULE        MAIN
  C:0000H         SYMBOL        _ICE_DUMMY_
  D:0080H         PUBLIC        P0
  D:0090H         PUBLIC        P1
BL51 BANKED LINKER/LOCATER V6.22                                                      03/31/2018  12:10:55  PAGE 12


  D:00A0H         PUBLIC        P2
  D:00B0H         PUBLIC        P3
  D:00C0H         PUBLIC        P4
  D:00C8H         PUBLIC        P5
  B:00A8H.7       PUBLIC        EA
  D:00E8H         PUBLIC        P6
  D:00F8H         PUBLIC        P7
  C:0874H         PUBLIC        InterruptTimer0
  D:00A8H         PUBLIC        IE
  C:0516H         PUBLIC        _ConfigTimer0
  B:0020H.3       PUBLIC        flag200ms
  D:00B8H         PUBLIC        IP
  X:0053H         PUBLIC        T0RH
  X:0054H         PUBLIC        T0RL
  D:00D8H         PUBLIC        CCON
  C:0B76H         PUBLIC        main
  D:0098H         PUBLIC        SCON
  D:0089H         PUBLIC        TMOD
  D:0088H         PUBLIC        TCON
  B:00A8H.1       PUBLIC        ET0
  D:008CH         PUBLIC        TH0
  D:008AH         PUBLIC        TL0
  B:0088H.4       PUBLIC        TR0
  C:0C5FH         PUBLIC        CloseFucker
  D:00D0H         PUBLIC        PSW
  -------         PROC          MAIN
  -------         DO            
  X:006EH         SYMBOL        val
  -------         ENDDO         
  C:0B76H         LINE#         17
  C:0B76H         LINE#         18
  C:0B76H         LINE#         19
  C:0B7AH         LINE#         24
  C:0B7CH         LINE#         25
  C:0B7FH         LINE#         26
  C:0B86H         LINE#         27
  C:0B89H         LINE#         33
  C:0B8EH         LINE#         35
  C:0B8EH         LINE#         36
  C:0B8EH         LINE#         37
  C:0B91H         LINE#         39
  C:0B94H         LINE#         40
  C:0B94H         LINE#         41
  C:0B96H         LINE#         46
  C:0B96H         LINE#         47
  -------         ENDPROC       MAIN
  -------         PROC          CLOSEFUCKER
  C:0C5FH         LINE#         50
  C:0C5FH         LINE#         51
  C:0C5FH         LINE#         52
  C:0C67H         LINE#         53
  C:0C6AH         LINE#         54
  C:0C6DH         LINE#         55
  -------         ENDPROC       CLOSEFUCKER
  -------         PROC          _CONFIGTIMER0
  D:0002H         SYMBOL        ms
  -------         DO            
BL51 BANKED LINKER/LOCATER V6.22                                                      03/31/2018  12:10:55  PAGE 13


  X:006FH         SYMBOL        tmp
  -------         ENDDO         
  C:0516H         LINE#         57
  C:051AH         LINE#         58
  C:051AH         LINE#         61
  C:0523H         LINE#         62
  C:054AH         LINE#         63
  C:056BH         LINE#         64
  C:0581H         LINE#         65
  C:058AH         LINE#         66
  C:058DH         LINE#         67
  C:0590H         LINE#         68
  C:0594H         LINE#         69
  C:0598H         LINE#         70
  C:059AH         LINE#         71
  C:059CH         LINE#         72
  -------         ENDPROC       _CONFIGTIMER0
  -------         PROC          INTERRUPTTIMER0
  -------         DO            
  X:0052H         SYMBOL        tmr200ms
  -------         ENDDO         
  C:0874H         LINE#         74
  C:0891H         LINE#         78
  C:0896H         LINE#         79
  C:089AH         LINE#         80
  C:089FH         LINE#         82
  C:08A5H         LINE#         83
  C:08A5H         LINE#         84
  C:08A7H         LINE#         85
  C:08A9H         LINE#         86
  C:08A9H         LINE#         88
  C:08ACH         LINE#         89
  C:08AFH         LINE#         90
  -------         ENDPROC       INTERRUPTTIMER0
  -------         ENDMOD        MAIN

  -------         MODULE        TIME
  C:0000H         SYMBOL        _ICE_DUMMY_
  D:0080H         PUBLIC        P0
  D:0090H         PUBLIC        P1
  D:00A0H         PUBLIC        P2
  D:00B0H         PUBLIC        P3
  D:00C0H         PUBLIC        P4
  D:00C8H         PUBLIC        P5
  D:00E8H         PUBLIC        P6
  D:00F8H         PUBLIC        P7
  C:0C6EH         PUBLIC        _KeyAction
  D:00A8H         PUBLIC        IE
  D:00B8H         PUBLIC        IP
  D:00D8H         PUBLIC        CCON
  D:0098H         PUBLIC        SCON
  D:0088H         PUBLIC        TCON
  X:005AH         PUBLIC        buffTime
  C:07BCH         PUBLIC        RefreshTime
  C:061FH         PUBLIC        RefreshTemp
  D:00D0H         PUBLIC        PSW
  -------         PROC          REFRESHTIME
BL51 BANKED LINKER/LOCATER V6.22                                                      03/31/2018  12:10:55  PAGE 14


  B:0020H.4       SYMBOL        sta
  C:07BCH         LINE#         8
  C:07BCH         LINE#         9
  C:07BCH         LINE#         10
  C:07BFH         LINE#         11
  C:07BFH         LINE#         12
  C:07C8H         LINE#         13
  C:07C8H         LINE#         14
  C:07D6H         LINE#         15
  C:07E0H         LINE#         16
  C:07E4H         LINE#         17
  C:07F2H         LINE#         18
  C:07FCH         LINE#         19
  C:0800H         LINE#         20
  C:080EH         LINE#         21
  C:0818H         LINE#         22
  -------         ENDPROC       REFRESHTIME
  -------         PROC          REFRESHTEMP
  -------         DO            
  X:0055H         SYMBOL        temp
  X:0057H         SYMBOL        tempBuff
  -------         ENDDO         
  C:061FH         LINE#         24
  C:061FH         LINE#         25
  C:061FH         LINE#         28
  C:0628H         LINE#         29
  C:062BH         LINE#         30
  C:0640H         LINE#         32
  C:065BH         LINE#         33
  C:065BH         LINE#         34
  C:0661H         LINE#         35
  C:0661H         LINE#         37
  C:067AH         LINE#         38
  C:068DH         LINE#         39
  -------         ENDPROC       REFRESHTEMP
  -------         PROC          _KEYACTION
  D:0007H         SYMBOL        keycode
  -------         DO            
  X:0059H         SYMBOL        add
  -------         ENDDO         
  C:0C6EH         LINE#         41
  C:0C6EH         LINE#         42
  C:0C6EH         LINE#         45
  C:0C72H         LINE#         46
  C:0C72H         LINE#         47
  C:0C7BH         LINE#         48
  C:0C7BH         LINE#         49
  -------         ENDPROC       _KEYACTION
  -------         ENDMOD        TIME

  -------         MODULE        EEPROM
  C:0000H         SYMBOL        _ICE_DUMMY_
  D:0080H         PUBLIC        P0
  D:0090H         PUBLIC        P1
  D:00A0H         PUBLIC        P2
  D:00B0H         PUBLIC        P3
  D:00C0H         PUBLIC        P4
BL51 BANKED LINKER/LOCATER V6.22                                                      03/31/2018  12:10:55  PAGE 15


  D:00C8H         PUBLIC        P5
  C:075DH         PUBLIC        _E2Write
  D:00E8H         PUBLIC        P6
  D:00F8H         PUBLIC        P7
  D:00A8H         PUBLIC        IE
  D:00B8H         PUBLIC        IP
  D:00D8H         PUBLIC        CCON
  D:0098H         PUBLIC        SCON
  D:0088H         PUBLIC        TCON
  C:06F7H         PUBLIC        _E2Read
  D:00D0H         PUBLIC        PSW
  -------         PROC          _E2READ
  X:0062H         SYMBOL        buf
  X:0065H         SYMBOL        addr
  X:0066H         SYMBOL        len
  C:06F7H         LINE#         4
  C:0704H         LINE#         5
  C:0704H         LINE#         6
  C:0704H         LINE#         7
  C:0707H         LINE#         8
  C:070EH         LINE#         9
  C:070EH         LINE#         10
  C:070EH         LINE#         11
  C:070EH         LINE#         12
  C:0711H         LINE#         13
  C:0713H         LINE#         14
  C:071AH         LINE#         15
  C:071DH         LINE#         16
  C:0722H         LINE#         17
  C:072AH         LINE#         18
  C:072AH         LINE#         19
  C:0742H         LINE#         20
  C:0747H         LINE#         21
  C:0749H         LINE#         22
  C:075AH         LINE#         23
  -------         ENDPROC       _E2READ
  -------         PROC          _E2WRITE
  X:0067H         SYMBOL        buf
  X:006AH         SYMBOL        addr
  X:006BH         SYMBOL        len
  C:075DH         LINE#         26
  C:076AH         LINE#         27
  C:076AH         LINE#         28
  C:0772H         LINE#         29
  C:0772H         LINE#         30
  C:0772H         LINE#         31
  C:0775H         LINE#         32
  C:077CH         LINE#         33
  C:077CH         LINE#         34
  C:077CH         LINE#         35
  C:077CH         LINE#         36
  C:077FH         LINE#         37
  C:0781H         LINE#         38
  C:0788H         LINE#         39
  C:0790H         LINE#         40
  C:0790H         LINE#         41
  C:07A8H         LINE#         42
BL51 BANKED LINKER/LOCATER V6.22                                                      03/31/2018  12:10:55  PAGE 16


  C:07ADH         LINE#         43
  C:07B1H         LINE#         44
  C:07B6H         LINE#         45
  C:07B6H         LINE#         46
  C:07B6H         LINE#         47
  C:07B6H         LINE#         49
  C:07B9H         LINE#         50
  C:07BBH         LINE#         51
  -------         ENDPROC       _E2WRITE
  -------         ENDMOD        EEPROM

  -------         MODULE        I2C
  C:0000H         SYMBOL        _ICE_DUMMY_
  D:0080H         PUBLIC        P0
  D:0090H         PUBLIC        P1
  B:00A0H.0       PUBLIC        I2C_SCL
  D:00A0H         PUBLIC        P2
  D:00B0H         PUBLIC        P3
  D:00C0H         PUBLIC        P4
  D:00C8H         PUBLIC        P5
  D:00E8H         PUBLIC        P6
  D:00F8H         PUBLIC        P7
  C:0AD7H         PUBLIC        I2CReadACK
  D:00A8H         PUBLIC        IE
  C:0C59H         PUBLIC        Delay5us
  C:0B00H         PUBLIC        I2CReadNAK
  D:00B8H         PUBLIC        IP
  D:00D8H         PUBLIC        CCON
  D:0098H         PUBLIC        SCON
  D:0088H         PUBLIC        TCON
  C:0AACH         PUBLIC        _I2CWrite
  C:0C1DH         PUBLIC        I2CStart
  C:0C2EH         PUBLIC        I2CStop
  B:00A0H.1       PUBLIC        I2C_SDA
  D:00D0H         PUBLIC        PSW
  C:0C4FH         SYMBOL        L?0023
  C:0C54H         SYMBOL        L?0024
  -------         PROC          L?0022
  -------         ENDPROC       L?0022
  C:0C4FH         SYMBOL        L?0023
  C:0C54H         SYMBOL        L?0024
  -------         PROC          DELAY5US
  -------         DO            
  D:0007H         SYMBOL        i
  -------         ENDDO         
  C:0C59H         LINE#         5
  C:0C59H         LINE#         6
  C:0C59H         LINE#         9
  C:0C5AH         LINE#         10
  C:0C5CH         LINE#         11
  C:0C5EH         LINE#         12
  -------         ENDPROC       DELAY5US
  -------         PROC          I2CSTART
  C:0C1DH         LINE#         14
  C:0C1DH         LINE#         15
  C:0C1DH         LINE#         16
  C:0C1FH         LINE#         17
BL51 BANKED LINKER/LOCATER V6.22                                                      03/31/2018  12:10:55  PAGE 17


  C:0C21H         LINE#         18
  C:0C24H         LINE#         19
  C:0C26H         LINE#         20
  C:0C29H         LINE#         21
  C:0C2BH         LINE#         22
  -------         ENDPROC       I2CSTART
  -------         PROC          I2CSTOP
  C:0C2EH         LINE#         25
  C:0C2EH         LINE#         26
  C:0C2EH         LINE#         27
  C:0C30H         LINE#         28
  C:0C32H         LINE#         29
  C:0C35H         LINE#         30
  C:0C37H         LINE#         31
  C:0C3AH         LINE#         32
  C:0C3CH         LINE#         33
  -------         ENDPROC       I2CSTOP
  -------         PROC          _I2CWRITE
  D:0006H         SYMBOL        dat
  -------         DO            
  B:0020H.5       SYMBOL        ack
  D:0005H         SYMBOL        mask
  -------         ENDDO         
  C:0AACH         LINE#         36
  C:0AAEH         LINE#         37
  C:0AAEH         LINE#         41
  C:0AB3H         LINE#         42
  C:0AB3H         LINE#         43
  C:0AB6H         LINE#         44
  C:0AB6H         LINE#         45
  C:0AB8H         LINE#         46
  C:0ABAH         LINE#         48
  C:0ABAH         LINE#         49
  C:0ABCH         LINE#         50
  C:0ABCH         LINE#         51
  C:0ABCH         LINE#         52
  C:0ABCH         LINE#         53
  C:0ABCH         LINE#         54
  C:0ABCH         LINE#         55
  C:0ABFH         LINE#         56
  C:0AC5H         LINE#         57
  C:0AC7H         LINE#         58
  C:0ACAH         LINE#         59
  C:0ACCH         LINE#         60
  C:0AD0H         LINE#         61
  C:0AD0H         LINE#         62
  C:0AD0H         LINE#         63
  C:0AD3H         LINE#         65
  C:0AD6H         LINE#         66
  -------         ENDPROC       _I2CWRITE
  -------         PROC          I2CREADACK
  -------         DO            
  D:0005H         SYMBOL        mask
  D:0006H         SYMBOL        dat
  -------         ENDDO         
  C:0AD7H         LINE#         68
  C:0AD7H         LINE#         69
BL51 BANKED LINKER/LOCATER V6.22                                                      03/31/2018  12:10:55  PAGE 18


  C:0AD7H         LINE#         70
  C:0AD9H         LINE#         72
  C:0ADBH         LINE#         73
  C:0ADEH         LINE#         74
  C:0AE3H         LINE#         75
  C:0AE3H         LINE#         76
  C:0AE5H         LINE#         77
  C:0AE8H         LINE#         78
  C:0AEBH         LINE#         79
  C:0AEBH         LINE#         80
  C:0AEDH         LINE#         81
  C:0AEDH         LINE#         82
  C:0AEFH         LINE#         83
  C:0AF2H         LINE#         84
  C:0AF8H         LINE#         85
  C:0AFAH         LINE#         86
  C:0AFAH         LINE#         87
  C:0AFAH         LINE#         88
  C:0AFAH         LINE#         89
  C:0AFAH         LINE#         90
  C:0AFDH         LINE#         92
  C:0AFFH         LINE#         93
  -------         ENDPROC       I2CREADACK
  -------         PROC          I2CREADNAK
  -------         DO            
  D:0005H         SYMBOL        mask
  D:0006H         SYMBOL        dat
  -------         ENDDO         
  C:0B00H         LINE#         95
  C:0B00H         LINE#         96
  C:0B00H         LINE#         97
  C:0B02H         LINE#         99
  C:0B04H         LINE#         100
  C:0B07H         LINE#         101
  C:0B0CH         LINE#         102
  C:0B0CH         LINE#         103
  C:0B0EH         LINE#         104
  C:0B11H         LINE#         105
  C:0B14H         LINE#         106
  C:0B14H         LINE#         107
  C:0B16H         LINE#         108
  C:0B16H         LINE#         109
  C:0B18H         LINE#         110
  C:0B1BH         LINE#         111
  C:0B21H         LINE#         112
  C:0B23H         LINE#         113
  C:0B23H         LINE#         114
  C:0B23H         LINE#         115
  C:0B23H         LINE#         116
  C:0B23H         LINE#         117
  C:0B26H         LINE#         119
  C:0B28H         LINE#         120
  -------         ENDPROC       I2CREADNAK
  -------         ENDMOD        I2C

  -------         MODULE        PCF8591
  C:0000H         SYMBOL        _ICE_DUMMY_
BL51 BANKED LINKER/LOCATER V6.22                                                      03/31/2018  12:10:55  PAGE 19


  D:0080H         PUBLIC        P0
  D:0090H         PUBLIC        P1
  D:00A0H         PUBLIC        P2
  D:00B0H         PUBLIC        P3
  D:00C0H         PUBLIC        P4
  D:00C8H         PUBLIC        P5
  D:00E8H         PUBLIC        P6
  D:00F8H         PUBLIC        P7
  D:00A8H         PUBLIC        IE
  C:0912H         PUBLIC        _GetADCVal
  D:00B8H         PUBLIC        IP
  D:00D8H         PUBLIC        CCON
  C:0A1AH         PUBLIC        _SetDACOut
  D:0098H         PUBLIC        SCON
  D:0088H         PUBLIC        TCON
  D:00D0H         PUBLIC        PSW
  -------         PROC          _GETADCVAL
  X:006CH         SYMBOL        ch
  -------         DO            
  X:006DH         SYMBOL        val
  -------         ENDDO         
  C:0912H         LINE#         6
  C:0916H         LINE#         7
  C:0916H         LINE#         10
  C:0919H         LINE#         11
  C:0920H         LINE#         12
  C:0920H         LINE#         13
  C:0923H         LINE#         14
  C:0926H         LINE#         15
  C:0926H         LINE#         16
  C:092FH         LINE#         17
  C:0932H         LINE#         18
  C:0937H         LINE#         19
  C:093AH         LINE#         20
  C:0941H         LINE#         21
  C:0944H         LINE#         23
  C:0959H         LINE#         24
  C:0959H         LINE#         25
  -------         ENDPROC       _GETADCVAL
  -------         PROC          _SETDACOUT
  X:006FH         SYMBOL        val
  C:0A1AH         LINE#         27
  C:0A1EH         LINE#         28
  C:0A1EH         LINE#         29
  C:0A31H         LINE#         31
  C:0A34H         LINE#         32
  C:0A3BH         LINE#         33
  C:0A3BH         LINE#         34
  C:0A3DH         LINE#         36
  C:0A3DH         LINE#         37
  C:0A42H         LINE#         38
  C:0A49H         LINE#         39
  C:0A4CH         LINE#         40
  -------         ENDPROC       _SETDACOUT
  -------         ENDMOD        PCF8591

  -------         MODULE        ?C?COPY
BL51 BANKED LINKER/LOCATER V6.22                                                      03/31/2018  12:10:55  PAGE 20


  C:00DEH         PUBLIC        ?C?COPY
  -------         ENDMOD        ?C?COPY

  -------         MODULE        ?C?CLDPTR
  C:0104H         PUBLIC        ?C?CLDPTR
  -------         ENDMOD        ?C?CLDPTR

  -------         MODULE        ?C?CLDOPTR
  C:011DH         PUBLIC        ?C?CLDOPTR
  -------         ENDMOD        ?C?CLDOPTR

  -------         MODULE        ?C?CSTPTR
  C:014AH         PUBLIC        ?C?CSTPTR
  -------         ENDMOD        ?C?CSTPTR

  -------         MODULE        ?C?CSTOPTR
  C:015CH         PUBLIC        ?C?CSTOPTR
  -------         ENDMOD        ?C?CSTOPTR

  -------         MODULE        ?C?UIDIV
  C:017EH         PUBLIC        ?C?UIDIV
  -------         ENDMOD        ?C?UIDIV

  -------         MODULE        ?C?SIDIV
  C:01D3H         PUBLIC        ?C?SIDIV
  -------         ENDMOD        ?C?SIDIV

  -------         MODULE        ?C?ILDPTR
  C:0209H         PUBLIC        ?C?ILDPTR
  -------         ENDMOD        ?C?ILDPTR

  -------         MODULE        ?C?ISTPTR
  C:0234H         PUBLIC        ?C?ISTPTR
  -------         ENDMOD        ?C?ISTPTR

  -------         MODULE        ?C?LMUL
  C:0253H         PUBLIC        ?C?LMUL
  -------         ENDMOD        ?C?LMUL

  -------         MODULE        ?C?ULDIV
  C:02DEH         PUBLIC        ?C?ULDIV
  -------         ENDMOD        ?C?ULDIV

  -------         MODULE        ?C?ULSHR
  C:0370H         PUBLIC        ?C?ULSHR
  -------         ENDMOD        ?C?ULSHR

  -------         MODULE        ?C?LSTPDATA
  C:0383H         PUBLIC        ?C?LSTPDATA
  -------         ENDMOD        ?C?LSTPDATA

  -------         MODULE        ?C?LSTKPDATA
  C:038FH         PUBLIC        ?C?LSTKPDATA
  -------         ENDMOD        ?C?LSTKPDATA

*** WARNING L16: UNCALLED SEGMENT, IGNORED FOR OVERLAY PROCESS
    SEGMENT: ?PR?REFRESHTIME?TIME
BL51 BANKED LINKER/LOCATER V6.22                                                      03/31/2018  12:10:55  PAGE 21



*** WARNING L16: UNCALLED SEGMENT, IGNORED FOR OVERLAY PROCESS
    SEGMENT: ?PR?REFRESHTEMP?TIME

*** WARNING L16: UNCALLED SEGMENT, IGNORED FOR OVERLAY PROCESS
    SEGMENT: ?PR?_E2READ?EEPROM

*** WARNING L16: UNCALLED SEGMENT, IGNORED FOR OVERLAY PROCESS
    SEGMENT: ?PR?_E2WRITE?EEPROM

*** WARNING L16: UNCALLED SEGMENT, IGNORED FOR OVERLAY PROCESS
    SEGMENT: ?PR?_GETADCVAL?PCF8591

Program Size: data=9.6 xdata=130 code=3207
LINK/LOCATE RUN COMPLETE.  5 WARNING(S),  0 ERROR(S)
