BL51 BANKED LINKER/LOCATER V6.22                                                        03/31/2018  10:37:24  PAGE 1


BL51 BANKED LINKER/LOCATER V6.22, INVOKED BY:
F:\KEIL4\C51\BIN\BL51.EXE ..\output\ds18b20.obj, ..\output\ds1302.obj, ..\output\keyboard.obj, ..\output\led.obj, ..\out
>> put\main.obj, ..\output\time.obj TO ..\output\test PRINT (..\output\test.m51) RAMSIZE (256)


MEMORY MODEL: COMPACT


INPUT MODULES INCLUDED:
  ..\output\ds18b20.obj (DS18B20)
  ..\output\ds1302.obj (DS1302)
  ..\output\keyboard.obj (KEYBOARD)
  ..\output\led.obj (LED)
  ..\output\main.obj (MAIN)
  ..\output\time.obj (TIME)
  F:\KEIL4\C51\LIB\C51C.LIB (?C_STARTUP)
  F:\KEIL4\C51\LIB\C51C.LIB (?C?COPY)
  F:\KEIL4\C51\LIB\C51C.LIB (?C?CLDPTR)
  F:\KEIL4\C51\LIB\C51C.LIB (?C?CLDOPTR)
  F:\KEIL4\C51\LIB\C51C.LIB (?C?CSTOPTR)
  F:\KEIL4\C51\LIB\C51C.LIB (?C?SIDIV)
  F:\KEIL4\C51\LIB\C51C.LIB (?C?ILDPTR)
  F:\KEIL4\C51\LIB\C51C.LIB (?C?ISTPTR)
  F:\KEIL4\C51\LIB\C51C.LIB (?C?LMUL)
  F:\KEIL4\C51\LIB\C51C.LIB (?C?ULDIV)
  F:\KEIL4\C51\LIB\C51C.LIB (?C?ULSHR)
  F:\KEIL4\C51\LIB\C51C.LIB (?C?LSTPDATA)
  F:\KEIL4\C51\LIB\C51C.LIB (?C?LSTKPDATA)
  F:\KEIL4\C51\LIB\C51C.LIB (?C_INIT)
  F:\KEIL4\C51\LIB\C51C.LIB (?C?UIDIV)


LINK MAP OF MODULE:  ..\output\test (DS18B20)


            TYPE    BASE      LENGTH    RELOCATION   SEGMENT NAME
            -----------------------------------------------------

            * * * * * * *   D A T A   M E M O R Y   * * * * * * *
            REG     0000H     0008H     ABSOLUTE     "REG BANK 0"
                    0008H     0018H                  *** GAP ***
            BIT     0020H.0   0000H.2   UNIT         _BIT_GROUP_
            BIT     0020H.2   0000H.1   UNIT         ?BI?_GET18B20TEMP?DS18B20
            BIT     0020H.3   0000H.1   UNIT         ?BI?MAIN
            BIT     0020H.4   0000H.1   UNIT         ?BI?REFRESHTIME?TIME
                    0020H.5   0000H.3                *** GAP ***
            IDATA   0021H     0001H     UNIT         ?STACK

            * * * * * * *  X D A T A   M E M O R Y  * * * * * * *
            XDATA   0000H     0003H     INPAGE       ?PD?_DS1302BURSTREAD?DS1302
            XDATA   0003H     000BH     INPAGE       ?PD?_GETREALTIME?DS1302
            XDATA   000EH     0041H     INPAGE       ?PD?KEYBOARD
            XDATA   004FH     0013H     INPAGE       ?PD?LED
            XDATA   0062H     0004H     INPAGE       ?PD?MAIN
            XDATA   0066H     0004H     INPAGE       ?PD?REFRESHTEMP?TIME
            XDATA   006AH     0009H     INPAGE       ?PD?TIME
            XDATA   0073H     0013H     INPAGE       _PDATA_GROUP_

BL51 BANKED LINKER/LOCATER V6.22                                                      03/31/2018  10:37:24  PAGE 2


            * * * * * * *   C O D E   M E M O R Y   * * * * * * *
            CODE    0000H     0003H     ABSOLUTE     
            CODE    0003H     0008H     UNIT         ?CO?DS1302
            CODE    000BH     0003H     ABSOLUTE     
            CODE    000EH     0388H     UNIT         ?C?LIB_CODE
            CODE    0396H     00E2H     UNIT         ?PR?KEYSCAN?KEYBOARD
            CODE    0478H     008CH     UNIT         ?C_C51STARTUP
            CODE    0504H     0087H     UNIT         ?PR?_CONFIGTIMER0?MAIN
            CODE    058BH     0073H     UNIT         ?PR?REFRESHTEMP?TIME
            CODE    05FEH     0072H     UNIT         ?PR?KEYDRIVER?KEYBOARD
            CODE    0670H     006EH     UNIT         ?C_INITSEG
            CODE    06DEH     0069H     UNIT         ?PR?_GETREALTIME?DS1302
            CODE    0747H     0063H     UNIT         ?PR?INTERRUPTTIMER0?MAIN
            CODE    07AAH     005DH     UNIT         ?PR?REFRESHTIME?TIME
            CODE    0807H     0048H     UNIT         ?PR?_SETREALTIME?DS1302
            CODE    084FH     0047H     UNIT         ?PR?_SHOWNUMBER?LED
            CODE    0896H     0046H     UNIT         ?PR?LEDSCAN?LED
            CODE    08DCH     0033H     UNIT         ?PR?_DS1302BURSTWRITE?DS1302
            CODE    090FH     0033H     UNIT         ?PR?_DS1302BURSTREAD?DS1302
            CODE    0942H     002EH     UNIT         ?PR?_GET18B20TEMP?DS18B20
            CODE    0970H     0028H     UNIT         ?PR?DS18B20READ?DS18B20
            CODE    0998H     0025H     UNIT         ?PR?_DS18B20WRITE?DS18B20
            CODE    09BDH     0020H     UNIT         ?PR?INITDS1302?DS1302
            CODE    09DDH     001DH     UNIT         ?PR?GET18B20ACK?DS18B20
            CODE    09FAH     001CH     UNIT         ?PR?MAIN?MAIN
            CODE    0A16H     001BH     UNIT         ?PR?_DS1302BYTEWRITE?DS1302
            CODE    0A31H     0017H     UNIT         ?PR?DS1302BYTEREAD?DS1302
            CODE    0A48H     0016H     UNIT         ?PR?START18B20?DS18B20
            CODE    0A5EH     000FH     UNIT         ?PR?CLOSEFUCKER?MAIN
            CODE    0A6DH     000EH     UNIT         ?PR?_KEYACTION?TIME
            CODE    0A7BH     000BH     UNIT         ?PR?_DELAY?DS18B20



OVERLAY MAP OF MODULE:   ..\output\test (DS18B20)


SEGMENT                                 BIT_GROUP          PDATA_GROUP
  +--> CALLED SEGMENT                START    LENGTH     START    LENGTH
------------------------------------------------------------------------
?PR?INTERRUPTTIMER0?MAIN             -----    -----      -----    -----
  +--> ?PR?LEDSCAN?LED
  +--> ?PR?KEYSCAN?KEYBOARD

*** NEW ROOT ***************************************************

?C_C51STARTUP                        -----    -----      -----    -----
  +--> ?PR?MAIN?MAIN
  +--> ?C_INITSEG

?PR?MAIN?MAIN                        -----    -----      -----    -----
  +--> ?PR?CLOSEFUCKER?MAIN
  +--> ?PR?_CONFIGTIMER0?MAIN
  +--> ?PR?INITDS1302?DS1302
  +--> ?PR?START18B20?DS18B20
  +--> ?PR?KEYDRIVER?KEYBOARD

BL51 BANKED LINKER/LOCATER V6.22                                                      03/31/2018  10:37:24  PAGE 3


?PR?_CONFIGTIMER0?MAIN               -----    -----      0073H    0004H

?PR?INITDS1302?DS1302                -----    -----      0073H    0008H
  +--> ?CO?DS1302
  +--> ?PR?_SETREALTIME?DS1302

?PR?_SETREALTIME?DS1302              -----    -----      007BH    0008H
  +--> ?PR?_DS1302BURSTWRITE?DS1302

?PR?_DS1302BURSTWRITE?DS1302         -----    -----      0083H    0003H
  +--> ?PR?_DS1302BYTEWRITE?DS1302

?PR?START18B20?DS18B20               0020H.0  0000H.1    -----    -----
  +--> ?PR?GET18B20ACK?DS18B20
  +--> ?PR?_DS18B20WRITE?DS18B20

?PR?GET18B20ACK?DS18B20              0020H.1  0000H.1    -----    -----
  +--> ?PR?_DELAY?DS18B20

?PR?_DS18B20WRITE?DS18B20            -----    -----      -----    -----
  +--> ?PR?_DELAY?DS18B20

?PR?KEYDRIVER?KEYBOARD               -----    -----      0073H    0002H
  +--> ?PR?_KEYACTION?TIME

?PR?_KEYACTION?TIME                  -----    -----      -----    -----
  +--> ?PR?_SHOWNUMBER?LED

?PR?_SHOWNUMBER?LED                  -----    -----      0075H    0008H



SYMBOL TABLE OF MODULE:  ..\output\test (DS18B20)

  VALUE           TYPE          NAME
  ----------------------------------

  -------         MODULE        DS18B20
  C:0000H         SYMBOL        _ICE_DUMMY_
  D:0080H         PUBLIC        P0
  C:09DDH         PUBLIC        Get18B20ACK
  D:0090H         PUBLIC        P1
  D:00A0H         PUBLIC        P2
  D:00B0H         PUBLIC        P3
  D:00C0H         PUBLIC        P4
  D:00C8H         PUBLIC        P5
  D:00E8H         PUBLIC        P6
  D:00F8H         PUBLIC        P7
  D:00A8H         PUBLIC        IE
  D:00B8H         PUBLIC        IP
  B:0090H.4       PUBLIC        DS18B20_IO
  C:0A48H         PUBLIC        Start18B20
  D:00D8H         PUBLIC        CCON
  C:0970H         PUBLIC        DS18B20Read
  D:0098H         PUBLIC        SCON
  C:0998H         PUBLIC        _DS18B20Write
  D:0088H         PUBLIC        TCON
BL51 BANKED LINKER/LOCATER V6.22                                                      03/31/2018  10:37:24  PAGE 4


  C:0942H         PUBLIC        _Get18B20Temp
  C:0A7BH         PUBLIC        _Delay
  D:00D0H         PUBLIC        PSW
  -------         PROC          _DELAY
  D:0007H         SYMBOL        us
  C:0A7BH         LINE#         3
  C:0A7BH         LINE#         4
  C:0A7BH         LINE#         5
  C:0A7BH         LINE#         6
  C:0A7CH         LINE#         7
  C:0A7DH         LINE#         8
  C:0A7EH         LINE#         9
  C:0A7FH         LINE#         10
  C:0A80H         LINE#         11
  C:0A81H         LINE#         12
  C:0A82H         LINE#         13
  C:0A83H         LINE#         14
  C:0A85H         LINE#         15
  -------         ENDPROC       _DELAY
  -------         PROC          GET18B20ACK
  -------         DO            
  B:0020H.1       SYMBOL        ack
  -------         ENDDO         
  C:09DDH         LINE#         17
  C:09DDH         LINE#         18
  C:09DDH         LINE#         22
  C:09DFH         LINE#         23
  C:09E4H         LINE#         24
  C:09E9H         LINE#         25
  C:09EBH         LINE#         26
  C:09F0H         LINE#         27
  C:09F4H         LINE#         28
  C:09F7H         LINE#         31
  C:09F9H         LINE#         32
  -------         ENDPROC       GET18B20ACK
  -------         PROC          _DS18B20WRITE
  D:0006H         SYMBOL        dat
  -------         DO            
  D:0005H         SYMBOL        mask
  -------         ENDDO         
  C:0998H         LINE#         34
  C:099AH         LINE#         35
  C:099AH         LINE#         39
  C:099FH         LINE#         40
  C:099FH         LINE#         41
  C:09A1H         LINE#         42
  C:09A6H         LINE#         43
  C:09A9H         LINE#         44
  C:09A9H         LINE#         45
  C:09ABH         LINE#         46
  C:09ADH         LINE#         48
  C:09ADH         LINE#         49
  C:09AFH         LINE#         50
  C:09AFH         LINE#         51
  C:09B4H         LINE#         52
  C:09B6H         LINE#         53
  C:09BCH         LINE#         55
BL51 BANKED LINKER/LOCATER V6.22                                                      03/31/2018  10:37:24  PAGE 5


  -------         ENDPROC       _DS18B20WRITE
  -------         PROC          DS18B20READ
  -------         DO            
  D:0005H         SYMBOL        mask
  D:0006H         SYMBOL        dat
  -------         ENDDO         
  C:0970H         LINE#         57
  C:0970H         LINE#         58
  C:0970H         LINE#         59
  C:0972H         LINE#         62
  C:0977H         LINE#         63
  C:0977H         LINE#         64
  C:0979H         LINE#         65
  C:097EH         LINE#         66
  C:0980H         LINE#         67
  C:0985H         LINE#         68
  C:0988H         LINE#         69
  C:0988H         LINE#         70
  C:098AH         LINE#         71
  C:098AH         LINE#         72
  C:098FH         LINE#         73
  C:0995H         LINE#         76
  C:0997H         LINE#         77
  -------         ENDPROC       DS18B20READ
  -------         PROC          START18B20
  -------         DO            
  B:0020H.0       SYMBOL        ack
  -------         ENDDO         
  C:0A48H         LINE#         79
  C:0A48H         LINE#         80
  C:0A48H         LINE#         83
  C:0A4DH         LINE#         84
  C:0A50H         LINE#         85
  C:0A50H         LINE#         86
  C:0A55H         LINE#         87
  C:0A5AH         LINE#         88
  C:0A5AH         LINE#         90
  C:0A5DH         LINE#         91
  -------         ENDPROC       START18B20
  -------         PROC          _GET18B20TEMP
  D:0001H         SYMBOL        temp
  -------         DO            
  B:0020H.2       SYMBOL        ack
  D:0004H         SYMBOL        LSB
  D:0007H         SYMBOL        MSB
  -------         ENDDO         
  C:0942H         LINE#         93
  C:0942H         LINE#         94
  C:0942H         LINE#         98
  C:0947H         LINE#         99
  C:094AH         LINE#         100
  C:094AH         LINE#         101
  C:094FH         LINE#         102
  C:0954H         LINE#         103
  C:0959H         LINE#         104
  C:095CH         LINE#         105
  C:096CH         LINE#         106
BL51 BANKED LINKER/LOCATER V6.22                                                      03/31/2018  10:37:24  PAGE 6


  C:096CH         LINE#         108
  C:096FH         LINE#         109
  -------         ENDPROC       _GET18B20TEMP
  -------         ENDMOD        DS18B20

  -------         MODULE        DS1302
  C:0000H         SYMBOL        _ICE_DUMMY_
  D:0080H         PUBLIC        P0
  D:0090H         PUBLIC        P1
  C:08DCH         PUBLIC        _DS1302BurstWrite
  D:00A0H         PUBLIC        P2
  D:00B0H         PUBLIC        P3
  D:00C0H         PUBLIC        P4
  C:0A16H         PUBLIC        _DS1302ByteWrite
  D:00C8H         PUBLIC        P5
  D:00E8H         PUBLIC        P6
  D:00F8H         PUBLIC        P7
  D:00A8H         PUBLIC        IE
  D:00B8H         PUBLIC        IP
  D:00D8H         PUBLIC        CCON
  D:0098H         PUBLIC        SCON
  D:0088H         PUBLIC        TCON
  C:06DEH         PUBLIC        _GetRealTime
  C:0003H         SYMBOL        _?ix1000
  C:0807H         PUBLIC        _SetRealTime
  B:0090H.3       PUBLIC        DS1302_CE
  B:0090H.7       PUBLIC        DS1302_CK
  B:00A0H.3       PUBLIC        DS1302_IO
  C:090FH         PUBLIC        _DS1302BurstRead
  C:0A31H         PUBLIC        DS1302ByteRead
  C:09BDH         PUBLIC        InitDS1302
  D:00D0H         PUBLIC        PSW
  -------         PROC          _DS1302BYTEWRITE
  D:0007H         SYMBOL        dat
  -------         DO            
  D:0006H         SYMBOL        mask
  -------         ENDDO         
  C:0A16H         LINE#         4
  C:0A16H         LINE#         5
  C:0A16H         LINE#         8
  C:0A1BH         LINE#         9
  C:0A1BH         LINE#         10
  C:0A1EH         LINE#         11
  C:0A1EH         LINE#         12
  C:0A20H         LINE#         13
  C:0A22H         LINE#         15
  C:0A22H         LINE#         16
  C:0A24H         LINE#         17
  C:0A24H         LINE#         18
  C:0A26H         LINE#         19
  C:0A28H         LINE#         20
  C:0A2EH         LINE#         21
  C:0A30H         LINE#         22
  -------         ENDPROC       _DS1302BYTEWRITE
  -------         PROC          DS1302BYTEREAD
  -------         DO            
  D:0006H         SYMBOL        mask
BL51 BANKED LINKER/LOCATER V6.22                                                      03/31/2018  10:37:24  PAGE 7


  D:0007H         SYMBOL        dat
  -------         ENDDO         
  C:0A31H         LINE#         24
  C:0A31H         LINE#         25
  C:0A31H         LINE#         26
  C:0A33H         LINE#         28
  C:0A38H         LINE#         29
  C:0A38H         LINE#         30
  C:0A3BH         LINE#         31
  C:0A3BH         LINE#         32
  C:0A3DH         LINE#         33
  C:0A3DH         LINE#         34
  C:0A3FH         LINE#         35
  C:0A41H         LINE#         36
  C:0A47H         LINE#         38
  C:0A47H         LINE#         39
  -------         ENDPROC       DS1302BYTEREAD
  -------         PROC          _DS1302BURSTWRITE
  X:0083H         SYMBOL        dat
  -------         DO            
  D:0005H         SYMBOL        i
  -------         ENDDO         
  C:08DCH         LINE#         41
  C:08E6H         LINE#         42
  C:08E6H         LINE#         45
  C:08E8H         LINE#         46
  C:08EDH         LINE#         47
  C:08EFH         LINE#         48
  C:08EFH         LINE#         49
  C:0907H         LINE#         50
  C:090CH         LINE#         51
  C:090EH         LINE#         52
  -------         ENDPROC       _DS1302BURSTWRITE
  -------         PROC          _DS1302BURSTREAD
  X:0000H         SYMBOL        dat
  -------         DO            
  D:0005H         SYMBOL        i
  -------         ENDDO         
  C:090FH         LINE#         54
  C:0919H         LINE#         55
  C:0919H         LINE#         58
  C:091BH         LINE#         59
  C:0920H         LINE#         60
  C:0922H         LINE#         61
  C:0922H         LINE#         62
  C:0938H         LINE#         63
  C:093DH         LINE#         64
  C:093FH         LINE#         65
  C:0941H         LINE#         66
  -------         ENDPROC       _DS1302BURSTREAD
  -------         PROC          _SETREALTIME
  D:0001H         SYMBOL        time
  -------         DO            
  X:007BH         SYMBOL        buf
  -------         ENDDO         
  C:0807H         LINE#         68
  C:0807H         LINE#         69
BL51 BANKED LINKER/LOCATER V6.22                                                      03/31/2018  10:37:24  PAGE 8


  C:0807H         LINE#         72
  C:080BH         LINE#         73
  C:0810H         LINE#         74
  C:0819H         LINE#         75
  C:0822H         LINE#         76
  C:082BH         LINE#         77
  C:0834H         LINE#         78
  C:083DH         LINE#         79
  C:0846H         LINE#         80
  -------         ENDPROC       _SETREALTIME
  -------         PROC          _GETREALTIME
  X:0003H         SYMBOL        time
  -------         DO            
  X:0006H         SYMBOL        buf
  -------         ENDDO         
  C:06DEH         LINE#         83
  C:06E8H         LINE#         84
  C:06E8H         LINE#         87
  C:06F1H         LINE#         88
  C:0705H         LINE#         89
  C:071AH         LINE#         90
  C:0723H         LINE#         91
  C:072CH         LINE#         92
  C:0735H         LINE#         93
  C:073EH         LINE#         94
  -------         ENDPROC       _GETREALTIME
  -------         PROC          INITDS1302
  -------         DO            
  X:0073H         SYMBOL        InitTime
  -------         ENDDO         
  C:09BDH         LINE#         97
  C:09BDH         LINE#         98
  C:09BDH         LINE#         99
  C:09D0H         LINE#         103
  C:09D2H         LINE#         104
  C:09D4H         LINE#         105
  -------         ENDPROC       INITDS1302
  -------         ENDMOD        DS1302

  -------         MODULE        KEYBOARD
  C:0000H         SYMBOL        _ICE_DUMMY_
  D:0080H         PUBLIC        P0
  D:0090H         PUBLIC        P1
  D:00A0H         PUBLIC        P2
  D:00B0H         PUBLIC        P3
  D:00C0H         PUBLIC        P4
  D:00C8H         PUBLIC        P5
  D:00E8H         PUBLIC        P6
  D:00F8H         PUBLIC        P7
  D:00A8H         PUBLIC        IE
  D:00B8H         PUBLIC        IP
  C:05FEH         PUBLIC        KeyDriver
  D:00D8H         PUBLIC        CCON
  C:0396H         PUBLIC        KeyScan
  D:0098H         PUBLIC        SCON
  D:0088H         PUBLIC        TCON
  X:002FH         PUBLIC        KeyCodeMap
BL51 BANKED LINKER/LOCATER V6.22                                                      03/31/2018  10:37:24  PAGE 9


  X:003FH         PUBLIC        KeySta
  B:00B0H.0       PUBLIC        KEY_OUT_1
  B:00B0H.1       PUBLIC        KEY_OUT_2
  B:00B0H.2       PUBLIC        KEY_OUT_3
  B:00B0H.3       PUBLIC        KEY_OUT_4
  B:00C0H.4       PUBLIC        KEY_IN_1
  B:00C0H.2       PUBLIC        KEY_IN_2
  B:00B0H.5       PUBLIC        KEY_IN_3
  B:00B0H.4       PUBLIC        KEY_IN_4
  D:00D0H         PUBLIC        PSW
  -------         PROC          KEYDRIVER
  -------         DO            
  X:0073H         SYMBOL        i
  X:0074H         SYMBOL        j
  X:000EH         SYMBOL        backup
  -------         ENDDO         
  C:05FEH         LINE#         14
  C:05FEH         LINE#         15
  C:05FEH         LINE#         21
  C:0602H         LINE#         22
  C:0602H         LINE#         23
  C:060EH         LINE#         24
  C:060EH         LINE#         25
  C:062BH         LINE#         26
  C:062BH         LINE#         27
  C:062EH         LINE#         28
  C:062EH         LINE#         29
  C:0641H         LINE#         30
  C:0641H         LINE#         31
  C:0641H         LINE#         32
  C:065DH         LINE#         33
  C:0664H         LINE#         34
  C:066FH         LINE#         35
  -------         ENDPROC       KEYDRIVER
  -------         PROC          KEYSCAN
  -------         DO            
  D:0007H         SYMBOL        i
  X:001EH         SYMBOL        keyout
  X:001FH         SYMBOL        keybuff
  -------         ENDDO         
  C:0396H         LINE#         37
  C:0396H         LINE#         38
  C:0396H         LINE#         46
  C:03A6H         LINE#         47
  C:03A6H         LINE#         48
  C:03ACH         LINE#         49
  C:03B2H         LINE#         50
  C:03B8H         LINE#         51
  C:03BCH         LINE#         52
  C:03BCH         LINE#         53
  C:03BCH         LINE#         55
  C:03DBH         LINE#         56
  C:03FAH         LINE#         57
  C:0419H         LINE#         58
  C:0438H         LINE#         60
  C:043AH         LINE#         61
  C:043AH         LINE#         62
BL51 BANKED LINKER/LOCATER V6.22                                                      03/31/2018  10:37:24  PAGE 10


  C:044DH         LINE#         63
  C:044DH         LINE#         64
  C:0459H         LINE#         65
  C:045BH         LINE#         66
  C:045EH         LINE#         67
  C:045EH         LINE#         68
  C:0469H         LINE#         69
  C:0469H         LINE#         71
  C:0469H         LINE#         72
  C:046EH         LINE#         74
  C:0473H         LINE#         75
  C:0477H         LINE#         76
  -------         ENDPROC       KEYSCAN
  -------         ENDMOD        KEYBOARD

  -------         MODULE        LED
  C:0000H         SYMBOL        _ICE_DUMMY_
  D:0080H         PUBLIC        P0
  D:0090H         PUBLIC        P1
  D:00A0H         PUBLIC        P2
  D:00B0H         PUBLIC        P3
  D:00C0H         PUBLIC        P4
  D:00C8H         PUBLIC        P5
  D:00E8H         PUBLIC        P6
  D:00F8H         PUBLIC        P7
  D:00A8H         PUBLIC        IE
  C:084FH         PUBLIC        _ShowNumber
  X:0050H         PUBLIC        LedChar
  D:00B8H         PUBLIC        IP
  X:005AH         PUBLIC        LedBuff
  C:0896H         PUBLIC        LedScan
  D:00D8H         PUBLIC        CCON
  D:0098H         PUBLIC        SCON
  D:0088H         PUBLIC        TCON
  D:00D0H         PUBLIC        PSW
  -------         PROC          LEDSCAN
  -------         DO            
  X:004FH         SYMBOL        index
  -------         ENDDO         
  C:0896H         LINE#         10
  C:0896H         LINE#         11
  C:0896H         LINE#         14
  C:089EH         LINE#         15
  C:08A1H         LINE#         16
  C:08A4H         LINE#         18
  C:08ACH         LINE#         19
  C:08BDH         LINE#         20
  C:08C0H         LINE#         22
  C:08C8H         LINE#         23
  C:08CFH         LINE#         24
  C:08D2H         LINE#         26
  C:08D7H         LINE#         27
  C:08DBH         LINE#         28
  -------         ENDPROC       LEDSCAN
  -------         PROC          _SHOWNUMBER
  D:0007H         SYMBOL        num
  -------         DO            
BL51 BANKED LINKER/LOCATER V6.22                                                      03/31/2018  10:37:24  PAGE 11


  X:0075H         SYMBOL        buf
  D:0006H         SYMBOL        i
  -------         ENDDO         
  C:084FH         LINE#         30
  C:084FH         LINE#         31
  C:084FH         LINE#         35
  C:0851H         LINE#         36
  C:0851H         LINE#         37
  C:085DH         LINE#         38
  C:0863H         LINE#         39
  C:0868H         LINE#         40
  C:086AH         LINE#         41
  C:086AH         LINE#         42
  C:0871H         LINE#         43
  C:0871H         LINE#         44
  C:0878H         LINE#         45
  C:0878H         LINE#         47
  C:0878H         LINE#         48
  C:0878H         LINE#         49
  C:0878H         LINE#         50
  C:087AH         LINE#         51
  C:0882H         LINE#         52
  C:0882H         LINE#         53
  C:0892H         LINE#         54
  C:0895H         LINE#         55
  -------         ENDPROC       _SHOWNUMBER
  -------         ENDMOD        LED

  -------         MODULE        MAIN
  C:0000H         SYMBOL        _ICE_DUMMY_
  D:0080H         PUBLIC        P0
  D:0090H         PUBLIC        P1
  D:00A0H         PUBLIC        P2
  D:00B0H         PUBLIC        P3
  D:00C0H         PUBLIC        P4
  D:00C8H         PUBLIC        P5
  B:00A8H.7       PUBLIC        EA
  D:00E8H         PUBLIC        P6
  D:00F8H         PUBLIC        P7
  C:0747H         PUBLIC        InterruptTimer0
  D:00A8H         PUBLIC        IE
  C:0504H         PUBLIC        _ConfigTimer0
  B:0020H.3       PUBLIC        flag200ms
  D:00B8H         PUBLIC        IP
  X:0064H         PUBLIC        T0RH
  X:0065H         PUBLIC        T0RL
  D:00D8H         PUBLIC        CCON
  C:09FAH         PUBLIC        main
  D:0098H         PUBLIC        SCON
  D:0089H         PUBLIC        TMOD
  D:0088H         PUBLIC        TCON
  B:00A8H.1       PUBLIC        ET0
  D:008CH         PUBLIC        TH0
  D:008AH         PUBLIC        TL0
  B:0088H.4       PUBLIC        TR0
  C:0A5EH         PUBLIC        CloseFucker
  D:00D0H         PUBLIC        PSW
BL51 BANKED LINKER/LOCATER V6.22                                                      03/31/2018  10:37:24  PAGE 12


  -------         PROC          MAIN
  C:09FAH         LINE#         14
  C:09FAH         LINE#         15
  C:09FAH         LINE#         16
  C:09FCH         LINE#         17
  C:09FFH         LINE#         18
  C:0A06H         LINE#         19
  C:0A09H         LINE#         20
  C:0A0CH         LINE#         22
  C:0A0CH         LINE#         23
  C:0A0CH         LINE#         24
  C:0A0FH         LINE#         25
  C:0A12H         LINE#         26
  C:0A12H         LINE#         27
  C:0A14H         LINE#         29
  C:0A14H         LINE#         30
  -------         ENDPROC       MAIN
  -------         PROC          CLOSEFUCKER
  C:0A5EH         LINE#         33
  C:0A5EH         LINE#         34
  C:0A5EH         LINE#         35
  C:0A66H         LINE#         36
  C:0A69H         LINE#         37
  C:0A6CH         LINE#         38
  -------         ENDPROC       CLOSEFUCKER
  -------         PROC          _CONFIGTIMER0
  D:0002H         SYMBOL        ms
  -------         DO            
  X:0073H         SYMBOL        tmp
  -------         ENDDO         
  C:0504H         LINE#         40
  C:0508H         LINE#         41
  C:0508H         LINE#         44
  C:0511H         LINE#         45
  C:0538H         LINE#         46
  C:0559H         LINE#         47
  C:056FH         LINE#         48
  C:0578H         LINE#         49
  C:057BH         LINE#         50
  C:057EH         LINE#         51
  C:0582H         LINE#         52
  C:0586H         LINE#         53
  C:0588H         LINE#         54
  C:058AH         LINE#         55
  -------         ENDPROC       _CONFIGTIMER0
  -------         PROC          INTERRUPTTIMER0
  -------         DO            
  X:0062H         SYMBOL        tmr200ms
  -------         ENDDO         
  C:0747H         LINE#         57
  C:0764H         LINE#         61
  C:0769H         LINE#         62
  C:076DH         LINE#         64
  C:0778H         LINE#         66
  C:0783H         LINE#         67
  C:0783H         LINE#         68
  C:0787H         LINE#         69
BL51 BANKED LINKER/LOCATER V6.22                                                      03/31/2018  10:37:24  PAGE 13


  C:0789H         LINE#         70
  C:0789H         LINE#         72
  C:078CH         LINE#         73
  C:078FH         LINE#         74
  -------         ENDPROC       INTERRUPTTIMER0
  -------         ENDMOD        MAIN

  -------         MODULE        TIME
  C:0000H         SYMBOL        _ICE_DUMMY_
  D:0080H         PUBLIC        P0
  D:0090H         PUBLIC        P1
  D:00A0H         PUBLIC        P2
  D:00B0H         PUBLIC        P3
  D:00C0H         PUBLIC        P4
  D:00C8H         PUBLIC        P5
  D:00E8H         PUBLIC        P6
  D:00F8H         PUBLIC        P7
  C:0A6DH         PUBLIC        _KeyAction
  D:00A8H         PUBLIC        IE
  D:00B8H         PUBLIC        IP
  D:00D8H         PUBLIC        CCON
  D:0098H         PUBLIC        SCON
  D:0088H         PUBLIC        TCON
  X:006BH         PUBLIC        buffTime
  C:07AAH         PUBLIC        RefreshTime
  C:058BH         PUBLIC        RefreshTemp
  D:00D0H         PUBLIC        PSW
  -------         PROC          REFRESHTIME
  B:0020H.4       SYMBOL        sta
  C:07AAH         LINE#         8
  C:07AAH         LINE#         9
  C:07AAH         LINE#         10
  C:07ADH         LINE#         11
  C:07ADH         LINE#         12
  C:07B6H         LINE#         13
  C:07B6H         LINE#         15
  C:07C4H         LINE#         16
  C:07CEH         LINE#         17
  C:07D2H         LINE#         18
  C:07E0H         LINE#         19
  C:07EAH         LINE#         20
  C:07EEH         LINE#         21
  C:07FCH         LINE#         22
  C:0806H         LINE#         23
  -------         ENDPROC       REFRESHTIME
  -------         PROC          REFRESHTEMP
  -------         DO            
  X:0066H         SYMBOL        temp
  X:0068H         SYMBOL        bufTemp
  -------         ENDDO         
  C:058BH         LINE#         25
  C:058BH         LINE#         26
  C:058BH         LINE#         29
  C:0594H         LINE#         30
  C:0597H         LINE#         31
  C:05ACH         LINE#         33
  C:05C7H         LINE#         34
BL51 BANKED LINKER/LOCATER V6.22                                                      03/31/2018  10:37:24  PAGE 14


  C:05C7H         LINE#         35
  C:05CDH         LINE#         36
  C:05CDH         LINE#         38
  C:05E6H         LINE#         39
  C:05F9H         LINE#         40
  C:05FDH         LINE#         41
  -------         ENDPROC       REFRESHTEMP
  -------         PROC          _KEYACTION
  D:0007H         SYMBOL        keycode
  -------         DO            
  X:006AH         SYMBOL        add
  -------         ENDDO         
  C:0A6DH         LINE#         43
  C:0A6DH         LINE#         44
  C:0A6DH         LINE#         47
  C:0A71H         LINE#         48
  C:0A71H         LINE#         49
  C:0A7AH         LINE#         50
  C:0A7AH         LINE#         51
  -------         ENDPROC       _KEYACTION
  -------         ENDMOD        TIME

  -------         MODULE        ?C?COPY
  C:00DEH         PUBLIC        ?C?COPY
  -------         ENDMOD        ?C?COPY

  -------         MODULE        ?C?CLDPTR
  C:0104H         PUBLIC        ?C?CLDPTR
  -------         ENDMOD        ?C?CLDPTR

  -------         MODULE        ?C?CLDOPTR
  C:011DH         PUBLIC        ?C?CLDOPTR
  -------         ENDMOD        ?C?CLDOPTR

  -------         MODULE        ?C?CSTOPTR
  C:014AH         PUBLIC        ?C?CSTOPTR
  -------         ENDMOD        ?C?CSTOPTR

  -------         MODULE        ?C?SIDIV
  C:016CH         PUBLIC        ?C?SIDIV
  -------         ENDMOD        ?C?SIDIV

  -------         MODULE        ?C?ILDPTR
  C:01A2H         PUBLIC        ?C?ILDPTR
  -------         ENDMOD        ?C?ILDPTR

  -------         MODULE        ?C?ISTPTR
  C:01CDH         PUBLIC        ?C?ISTPTR
  -------         ENDMOD        ?C?ISTPTR

  -------         MODULE        ?C?LMUL
  C:01ECH         PUBLIC        ?C?LMUL
  -------         ENDMOD        ?C?LMUL

  -------         MODULE        ?C?ULDIV
  C:0277H         PUBLIC        ?C?ULDIV
  -------         ENDMOD        ?C?ULDIV
BL51 BANKED LINKER/LOCATER V6.22                                                      03/31/2018  10:37:24  PAGE 15



  -------         MODULE        ?C?ULSHR
  C:0309H         PUBLIC        ?C?ULSHR
  -------         ENDMOD        ?C?ULSHR

  -------         MODULE        ?C?LSTPDATA
  C:031CH         PUBLIC        ?C?LSTPDATA
  -------         ENDMOD        ?C?LSTPDATA

  -------         MODULE        ?C?LSTKPDATA
  C:0328H         PUBLIC        ?C?LSTKPDATA
  -------         ENDMOD        ?C?LSTKPDATA

  -------         MODULE        ?C?UIDIV
  C:0341H         PUBLIC        ?C?UIDIV
  -------         ENDMOD        ?C?UIDIV

*** WARNING L16: UNCALLED SEGMENT, IGNORED FOR OVERLAY PROCESS
    SEGMENT: ?PR?REFRESHTIME?TIME

*** WARNING L16: UNCALLED SEGMENT, IGNORED FOR OVERLAY PROCESS
    SEGMENT: ?PR?REFRESHTEMP?TIME

Program Size: data=9.5 xdata=134 code=2694
LINK/LOCATE RUN COMPLETE.  2 WARNING(S),  0 ERROR(S)
